; Function Attrs: nounwind uwtable
define dso_local void @do_tup_output(ptr noundef readonly captures(none) %0, ptr noundef readonly captures(none) %1, ptr noundef readonly captures(none) %2) local_unnamed_addr #1 {
  %4 = load ptr, ptr %0, align 8
  %5 = getelementptr inbounds nuw i8, ptr %4, i64 16
  %6 = load ptr, ptr %5, align 8
  %7 = load i32, ptr %6, align 8
  %8 = getelementptr inbounds nuw i8, ptr %4, i64 8
  %9 = load ptr, ptr %8, align 8
  %10 = getelementptr inbounds nuw i8, ptr %9, i64 24
  %11 = load ptr, ptr %10, align 8
  tail call void %11(ptr noundef %4) #14
  %12 = getelementptr inbounds nuw i8, ptr %4, i64 24
  %13 = load ptr, ptr %12, align 8
  %14 = sext i32 %7 to i64
  %15 = shl nsw i64 %14, 3
  tail call void @llvm.memcpy.p0.p0.i64(ptr align 8 %13, ptr align 8 %1, i64 %15, i1 false)
  %16 = getelementptr inbounds nuw i8, ptr %4, i64 32
  %17 = load ptr, ptr %16, align 8
  tail call void @llvm.memcpy.p0.p0.i64(ptr align 1 %17, ptr align 1 %2, i64 %14, i1 false)
  %18 = getelementptr inbounds nuw i8, ptr %4, i64 4
  %19 = load i16, ptr %18, align 4
  %20 = and i16 %19, -3
  store i16 %20, ptr %18, align 4
  %21 = load ptr, ptr %5, align 8
  %22 = load i32, ptr %21, align 8
  %23 = trunc i32 %22 to i16
  %24 = getelementptr inbounds nuw i8, ptr %4, i64 6
  store i16 %23, ptr %24, align 2
  %25 = getelementptr inbounds nuw i8, ptr %0, i64 8
  %26 = load ptr, ptr %25, align 8
  %27 = load ptr, ptr %26, align 8
  %28 = tail call zeroext i1 %27(ptr noundef %4, ptr noundef nonnull %26) #14
  %29 = load ptr, ptr %8, align 8
  %30 = getelementptr inbounds nuw i8, ptr %29, i64 24
  %31 = load ptr, ptr %30, align 8
  tail call void %31(ptr noundef %4) #14
  ret void
}